target datalayout = "e-m:e-p270:32:32-p271:32:32-p272:64:64-i64:64-i128:128-f80:128-n8:16:32:64-S128"
target triple = "x86_64-unknown-linux-gnu"

%"class.EA::StdC::Stopwatch" = type { i64, i64, i32, float }
%struct.LargePOD = type { ptr, %struct.LargeObject, %struct.LargeObject, ptr, ptr }
%struct.LargeObject = type { [2048 x i32] }
%struct.timespec = type { i64, i64 }

@_ZN9Benchmark14gScratchBufferE = external global [1024 x i8], align 16
@.str.59 = private unnamed_addr constant [3 x i8] c"%d\00", align 1

; Function Attrs: mustprogress nounwind uwtable
define linkonce_odr dso_local noundef nonnull align 8 dereferenceable(16408) ptr @_ZN8LargePODaSERKS_(ptr noundef nonnull align 8 dereferenceable(16408) %this, ptr noundef nonnull align 8 dereferenceable(16408) %largePOD) #4 comdat align 2 {
entry:
  %this.addr = alloca ptr, align 8
  %largePOD.addr = alloca ptr, align 8
  store ptr %this, ptr %this.addr, align 8
  store ptr %largePOD, ptr %largePOD.addr, align 8
  %this1 = load ptr, ptr %this.addr, align 8
  %0 = load ptr, ptr %largePOD.addr, align 8
  %cmp = icmp ne ptr %0, %this1
  br i1 %cmp, label %if.then, label %if.end

if.then:                                          ; preds = %entry
  %1 = load ptr, ptr %largePOD.addr, align 8
  %mLargeObject1 = getelementptr inbounds %struct.LargePOD, ptr %1, i32 0, i32 1
  %mLargeObject12 = getelementptr inbounds %struct.LargePOD, ptr %this1, i32 0, i32 1
  call void @llvm.memcpy.p0.p0.i64(ptr align 8 %mLargeObject12, ptr align 8 %mLargeObject1, i64 8192, i1 false)
  %2 = load ptr, ptr %largePOD.addr, align 8
  %mLargeObject2 = getelementptr inbounds %struct.LargePOD, ptr %2, i32 0, i32 2
  %mLargeObject23 = getelementptr inbounds %struct.LargePOD, ptr %this1, i32 0, i32 2
  call void @llvm.memcpy.p0.p0.i64(ptr align 8 %mLargeObject23, ptr align 8 %mLargeObject2, i64 8192, i1 false)
  %3 = load ptr, ptr %largePOD.addr, align 8
  %mpName1 = getelementptr inbounds %struct.LargePOD, ptr %3, i32 0, i32 3
  %4 = load ptr, ptr %mpName1, align 8
  %mpName14 = getelementptr inbounds %struct.LargePOD, ptr %this1, i32 0, i32 3
  store ptr %4, ptr %mpName14, align 8
  %5 = load ptr, ptr %largePOD.addr, align 8
  %mpName2 = getelementptr inbounds %struct.LargePOD, ptr %5, i32 0, i32 4
  %6 = load ptr, ptr %mpName2, align 8
  %mpName25 = getelementptr inbounds %struct.LargePOD, ptr %this1, i32 0, i32 4
  store ptr %6, ptr %mpName25, align 8
  br label %if.end

if.end:                                           ; preds = %if.then, %entry
  ret ptr %this1
}

; Function Attrs: mustprogress nounwind uwtable
define linkonce_odr dso_local noundef ptr @_ZN5eastl29move_and_copy_backward_helperINS_26random_access_iterator_tagELb0ELb0EE21move_or_copy_backwardIP8LargePODS5_EET0_T_S7_S6_(ptr noundef %first, ptr noundef %last, ptr noundef %resultEnd) #4 comdat align 2 {
entry:
  %first.addr = alloca ptr, align 8
  %last.addr = alloca ptr, align 8
  %resultEnd.addr = alloca ptr, align 8
  %n = alloca i64, align 8
  store ptr %first, ptr %first.addr, align 8
  store ptr %last, ptr %last.addr, align 8
  store ptr %resultEnd, ptr %resultEnd.addr, align 8
  %0 = load ptr, ptr %last.addr, align 8
  %1 = load ptr, ptr %first.addr, align 8
  %sub.ptr.lhs.cast = ptrtoint ptr %0 to i64
  %sub.ptr.rhs.cast = ptrtoint ptr %1 to i64
  %sub.ptr.sub = sub i64 %sub.ptr.lhs.cast, %sub.ptr.rhs.cast
  %sub.ptr.div = sdiv exact i64 %sub.ptr.sub, 16408
  store i64 %sub.ptr.div, ptr %n, align 8
  br label %for.cond

for.cond:                                         ; preds = %for.inc, %entry
  %2 = load i64, ptr %n, align 8
  %cmp = icmp sgt i64 %2, 0
  br i1 %cmp, label %for.body, label %for.end

for.body:                                         ; preds = %for.cond
  %3 = load ptr, ptr %last.addr, align 8
  %incdec.ptr = getelementptr inbounds %struct.LargePOD, ptr %3, i32 -1
  store ptr %incdec.ptr, ptr %last.addr, align 8
  %4 = load ptr, ptr %resultEnd.addr, align 8
  %incdec.ptr1 = getelementptr inbounds %struct.LargePOD, ptr %4, i32 -1
  store ptr %incdec.ptr1, ptr %resultEnd.addr, align 8
  %call = call noundef nonnull align 8 dereferenceable(16408) ptr @_ZN8LargePODaSERKS_(ptr noundef nonnull align 8 dereferenceable(16408) %incdec.ptr1, ptr noundef nonnull align 8 dereferenceable(16408) %incdec.ptr)
  br label %for.inc

for.inc:                                          ; preds = %for.body
  %5 = load i64, ptr %n, align 8
  %dec = add nsw i64 %5, -1
  store i64 %dec, ptr %n, align 8
  br label %for.cond, !llvm.loop !165

for.end:                                          ; preds = %for.cond
  %6 = load ptr, ptr %resultEnd.addr, align 8
  ret ptr %6
}

; Function Attrs: mustprogress uwtable
define linkonce_odr dso_local noundef ptr @_ZN5eastl30move_and_copy_backward_chooserILb0EP8LargePODS2_EET1_T0_S4_S3_(ptr noundef %first, ptr noundef %last, ptr noundef %resultEnd) #0 comdat {
entry:
  %first.addr = alloca ptr, align 8
  %last.addr = alloca ptr, align 8
  %resultEnd.addr = alloca ptr, align 8
  %canBeMemmoved = alloca i8, align 1
  store ptr %first, ptr %first.addr, align 8
  store ptr %last, ptr %last.addr, align 8
  store ptr %resultEnd, ptr %resultEnd.addr, align 8
  store i8 0, ptr %canBeMemmoved, align 1
  %0 = load ptr, ptr %first.addr, align 8
  %1 = load ptr, ptr %last.addr, align 8
  %2 = load ptr, ptr %resultEnd.addr, align 8
  %call = call noundef ptr @_ZN5eastl29move_and_copy_backward_helperINS_26random_access_iterator_tagELb0ELb0EE21move_or_copy_backwardIP8LargePODS5_EET0_T_S7_S6_(ptr noundef %0, ptr noundef %1, ptr noundef %2)
  ret ptr %call
}

; Function Attrs: mustprogress nounwind uwtable
define linkonce_odr dso_local noundef ptr @_ZN5eastl26is_iterator_wrapper_helperIP8LargePODLb0EE13get_unwrappedES2_(ptr noundef %it) #4 comdat align 2 {
entry:
  %it.addr = alloca ptr, align 8
  store ptr %it, ptr %it.addr, align 8
  %0 = load ptr, ptr %it.addr, align 8
  ret ptr %0
}

; Function Attrs: mustprogress nounwind uwtable
define linkonce_odr dso_local noundef i64 @_ZN2EA4StdC9Stopwatch17GetStopwatchCycleEv() #4 comdat align 2 {
entry:
  %ts = alloca %struct.timespec, align 8
  %result = alloca i32, align 4
  %nNanoseconds = alloca i64, align 8
  %call = call i32 @clock_gettime(i32 noundef 1, ptr noundef %ts) #9
  store i32 %call, ptr %result, align 4
  %0 = load i32, ptr %result, align 4
  %cmp = icmp eq i32 %0, 22
  br i1 %cmp, label %if.then, label %if.end

if.then:                                          ; preds = %entry
  %call1 = call i32 @clock_gettime(i32 noundef 0, ptr noundef %ts) #9
  store i32 %call1, ptr %result, align 4
  br label %if.end

if.end:                                           ; preds = %if.then, %entry
  %tv_nsec = getelementptr inbounds %struct.timespec, ptr %ts, i32 0, i32 1
  %1 = load i64, ptr %tv_nsec, align 8
  %tv_sec = getelementptr inbounds %struct.timespec, ptr %ts, i32 0, i32 0
  %2 = load i64, ptr %tv_sec, align 8
  %mul = mul i64 %2, 1000000000
  %add = add i64 %1, %mul
  store i64 %add, ptr %nNanoseconds, align 8
  %3 = load i64, ptr %nNanoseconds, align 8
  ret i64 %3
}

; Function Attrs: mustprogress nounwind uwtable
define linkonce_odr dso_local noundef i64 @_ZN2EA4StdC9Stopwatch11GetCPUCycleEv() #4 comdat align 2 {
entry:
  %0 = call i64 @llvm.x86.rdtsc()
  ret i64 %0
}

; Function Attrs: mustprogress uwtable
define linkonce_odr dso_local noundef ptr @_ZN5eastl32move_and_copy_backward_unwrapperILb0EP8LargePODS2_EET1_T0_S4_S3_(ptr noundef %first, ptr noundef %last, ptr noundef %resultEnd) #0 comdat {
entry:
  %first.addr = alloca ptr, align 8
  %last.addr = alloca ptr, align 8
  %resultEnd.addr = alloca ptr, align 8
  store ptr %first, ptr %first.addr, align 8
  store ptr %last, ptr %last.addr, align 8
  store ptr %resultEnd, ptr %resultEnd.addr, align 8
  %0 = load ptr, ptr %first.addr, align 8
  %call = call noundef ptr @_ZN5eastl15unwrap_iteratorIP8LargePODEENS_26is_iterator_wrapper_helperIT_Xsr5eastl19is_iterator_wrapperIS4_EE5valueEE13iterator_typeES4_(ptr noundef %0)
  %1 = load ptr, ptr %last.addr, align 8
  %call1 = call noundef ptr @_ZN5eastl15unwrap_iteratorIP8LargePODEENS_26is_iterator_wrapper_helperIT_Xsr5eastl19is_iterator_wrapperIS4_EE5valueEE13iterator_typeES4_(ptr noundef %1)
  %2 = load ptr, ptr %resultEnd.addr, align 8
  %call2 = call noundef ptr @_ZN5eastl15unwrap_iteratorIP8LargePODEENS_26is_iterator_wrapper_helperIT_Xsr5eastl19is_iterator_wrapperIS4_EE5valueEE13iterator_typeES4_(ptr noundef %2)
  %call3 = call noundef ptr @_ZN5eastl30move_and_copy_backward_chooserILb0EP8LargePODS2_EET1_T0_S4_S3_(ptr noundef %call, ptr noundef %call1, ptr noundef %call2)
  ret ptr %call3
}

; Function Attrs: mustprogress uwtable
define linkonce_odr dso_local noundef ptr @_ZN5eastl15unwrap_iteratorIP8LargePODEENS_26is_iterator_wrapper_helperIT_Xsr5eastl19is_iterator_wrapperIS4_EE5valueEE13iterator_typeES4_(ptr noundef %it) #0 comdat {
entry:
  %it.addr = alloca ptr, align 8
  store ptr %it, ptr %it.addr, align 8
  %0 = load ptr, ptr %it.addr, align 8
  %call = call noundef ptr @_ZN5eastl26is_iterator_wrapper_helperIP8LargePODLb0EE13get_unwrappedES2_(ptr noundef %0)
  ret ptr %call
}

; Function Attrs: mustprogress uwtable
define linkonce_odr dso_local void @_ZN2EA4StdC9Stopwatch5StartEv(ptr noundef nonnull align 8 dereferenceable(24) %this) #0 comdat align 2 {
entry:
  %this.addr = alloca ptr, align 8
  store ptr %this, ptr %this.addr, align 8
  %this1 = load ptr, ptr %this.addr, align 8
  %mnStartTime = getelementptr inbounds %"class.EA::StdC::Stopwatch", ptr %this1, i32 0, i32 0
  %0 = load i64, ptr %mnStartTime, align 8
  %tobool = icmp ne i64 %0, 0
  br i1 %tobool, label %if.end6, label %if.then

if.then:                                          ; preds = %entry
  %mnUnits = getelementptr inbounds %"class.EA::StdC::Stopwatch", ptr %this1, i32 0, i32 2
  %1 = load i32, ptr %mnUnits, align 8
  %cmp = icmp eq i32 %1, 1
  br i1 %cmp, label %if.then2, label %if.else

if.then2:                                         ; preds = %if.then
  %call = call noundef i64 @_ZN2EA4StdC9Stopwatch11GetCPUCycleEv()
  %mnStartTime3 = getelementptr inbounds %"class.EA::StdC::Stopwatch", ptr %this1, i32 0, i32 0
  store i64 %call, ptr %mnStartTime3, align 8
  br label %if.end

if.else:                                          ; preds = %if.then
  %call4 = call noundef i64 @_ZN2EA4StdC9Stopwatch17GetStopwatchCycleEv()
  %mnStartTime5 = getelementptr inbounds %"class.EA::StdC::Stopwatch", ptr %this1, i32 0, i32 0
  store i64 %call4, ptr %mnStartTime5, align 8
  br label %if.end

if.end:                                           ; preds = %if.else, %if.then2
  br label %if.end6

if.end6:                                          ; preds = %if.end, %entry
  ret void
}

; Function Attrs: mustprogress nounwind uwtable
define linkonce_odr dso_local noundef i32 @_ZN8LargePODcviEv(ptr noundef nonnull align 8 dereferenceable(16408) %this) #4 comdat align 2 {
entry:
  %this.addr = alloca ptr, align 8
  store ptr %this, ptr %this.addr, align 8
  %this1 = load ptr, ptr %this.addr, align 8
  %mLargeObject1 = getelementptr inbounds %struct.LargePOD, ptr %this1, i32 0, i32 1
  %mData = getelementptr inbounds %struct.LargeObject, ptr %mLargeObject1, i32 0, i32 0
  %arrayidx = getelementptr inbounds [2048 x i32], ptr %mData, i64 0, i64 0
  %0 = load i32, ptr %arrayidx, align 8
  ret i32 %0
}

; Function Attrs: mustprogress uwtable
define linkonce_odr dso_local noundef ptr @_ZN5eastl13copy_backwardIP8LargePODS2_EET0_T_S4_S3_(ptr noundef %first, ptr noundef %last, ptr noundef %resultEnd) #0 comdat {
entry:
  %first.addr = alloca ptr, align 8
  %last.addr = alloca ptr, align 8
  %resultEnd.addr = alloca ptr, align 8
  %isMove = alloca i8, align 1
  store ptr %first, ptr %first.addr, align 8
  store ptr %last, ptr %last.addr, align 8
  store ptr %resultEnd, ptr %resultEnd.addr, align 8
  store i8 0, ptr %isMove, align 1
  %0 = load ptr, ptr %first.addr, align 8
  %call = call noundef ptr @_ZN5eastl15unwrap_iteratorIP8LargePODEENS_26is_iterator_wrapper_helperIT_Xsr5eastl19is_iterator_wrapperIS4_EE5valueEE13iterator_typeES4_(ptr noundef %0)
  %1 = load ptr, ptr %last.addr, align 8
  %call1 = call noundef ptr @_ZN5eastl15unwrap_iteratorIP8LargePODEENS_26is_iterator_wrapper_helperIT_Xsr5eastl19is_iterator_wrapperIS4_EE5valueEE13iterator_typeES4_(ptr noundef %1)
  %2 = load ptr, ptr %resultEnd.addr, align 8
  %call2 = call noundef ptr @_ZN5eastl32move_and_copy_backward_unwrapperILb0EP8LargePODS2_EET1_T0_S4_S3_(ptr noundef %call, ptr noundef %call1, ptr noundef %2)
  ret ptr %call2
}

; Function Attrs: mustprogress uwtable
define linkonce_odr dso_local void @_ZN2EA4StdC9Stopwatch7RestartEv(ptr noundef nonnull align 8 dereferenceable(24) %this) #0 comdat align 2 {
entry:
  %this.addr = alloca ptr, align 8
  store ptr %this, ptr %this.addr, align 8
  %this1 = load ptr, ptr %this.addr, align 8
  %mnStartTime = getelementptr inbounds %"class.EA::StdC::Stopwatch", ptr %this1, i32 0, i32 0
  store i64 0, ptr %mnStartTime, align 8
  %mnTotalElapsedTime = getelementptr inbounds %"class.EA::StdC::Stopwatch", ptr %this1, i32 0, i32 1
  store i64 0, ptr %mnTotalElapsedTime, align 8
  call void @_ZN2EA4StdC9Stopwatch5StartEv(ptr noundef nonnull align 8 dereferenceable(24) %this1)
  ret void
}

; Function Attrs: mustprogress uwtable
define internal void @_ZN12_GLOBAL__N_118TestCopyBackwardEaIP8LargePODS2_EEvRN2EA4StdC9StopwatchET_S7_T0_(ptr noundef nonnull align 8 dereferenceable(24) %stopwatch, ptr noundef %first, ptr noundef %last, ptr noundef %result) #0 {
entry:
  %stopwatch.addr = alloca ptr, align 8
  %first.addr = alloca ptr, align 8
  %last.addr = alloca ptr, align 8
  %result.addr = alloca ptr, align 8
  store ptr %stopwatch, ptr %stopwatch.addr, align 8
  store ptr %first, ptr %first.addr, align 8
  store ptr %last, ptr %last.addr, align 8
  store ptr %result, ptr %result.addr, align 8
  %0 = load ptr, ptr %stopwatch.addr, align 8
  call void @_ZN2EA4StdC9Stopwatch7RestartEv(ptr noundef nonnull align 8 dereferenceable(24) %0)
  %1 = load ptr, ptr %first.addr, align 8
  %2 = load ptr, ptr %last.addr, align 8
  %3 = load ptr, ptr %result.addr, align 8
  %call = call noundef ptr @_ZN5eastl13copy_backwardIP8LargePODS2_EET0_T_S4_S3_(ptr noundef %1, ptr noundef %2, ptr noundef %3)
  %4 = load ptr, ptr %stopwatch.addr, align 8
  call void @_ZN2EA4StdC9Stopwatch4StopEv(ptr noundef nonnull align 8 dereferenceable(24) %4)
  %5 = load ptr, ptr %first.addr, align 8
  %call1 = call noundef i32 @_ZN8LargePODcviEv(ptr noundef nonnull align 8 dereferenceable(16408) %5)
  %call2 = call i32 (ptr, ptr, ...) @sprintf(ptr noundef @_ZN9Benchmark14gScratchBufferE, ptr noundef @.str.59, i32 noundef %call1) #9
  ret void
}