; Function Attrs: mustprogress uwtable
define internal fastcc void @_ZN12_GLOBAL__N_118TestCopyBackwardEaIP8LargePODS2_EEvRN2EA4StdC9StopwatchET_S7_T0_(ptr noundef nonnull align 8 dereferenceable(24) %stopwatch, ptr noundef %first, ptr noundef %last, ptr noundef writeonly %result) unnamed_addr #0 {
entry:
  %ts.i.i.i = alloca %struct.timespec, align 8
  %mnUnits.i.i = getelementptr inbounds i8, ptr %stopwatch, i64 16
  tail call void @llvm.memset.p0.i64(ptr noundef nonnull align 8 dereferenceable(16) %stopwatch, i8 0, i64 16, i1 false)
  %0 = load i32, ptr %mnUnits.i.i, align 8
  %cmp.i.i = icmp eq i32 %0, 1
  br i1 %cmp.i.i, label %if.then2.i.i, label %if.else.i.i

if.then2.i.i:                                     ; preds = %entry
  %1 = tail call noundef i64 @llvm.x86.rdtsc()
  br label %_ZN2EA4StdC9Stopwatch7RestartEv.exit

if.else.i.i:                                      ; preds = %entry
  call void @llvm.lifetime.start.p0(i64 16, ptr nonnull %ts.i.i.i)
  %call.i.i.i = call i32 @clock_gettime(i32 noundef 1, ptr noundef nonnull %ts.i.i.i) #9
  %cmp.i.i.i = icmp eq i32 %call.i.i.i, 22
  br i1 %cmp.i.i.i, label %if.then.i.i.i, label %_ZN2EA4StdC9Stopwatch17GetStopwatchCycleEv.exit.i.i

if.then.i.i.i:                                    ; preds = %if.else.i.i
  %call1.i.i.i = call i32 @clock_gettime(i32 noundef 0, ptr noundef nonnull %ts.i.i.i) #9
  br label %_ZN2EA4StdC9Stopwatch17GetStopwatchCycleEv.exit.i.i

_ZN2EA4StdC9Stopwatch17GetStopwatchCycleEv.exit.i.i: ; preds = %if.then.i.i.i, %if.else.i.i
  %tv_nsec.i.i.i = getelementptr inbounds i8, ptr %ts.i.i.i, i64 8
  %2 = load i64, ptr %tv_nsec.i.i.i, align 8
  %3 = load i64, ptr %ts.i.i.i, align 8
  %mul.i.i.i = mul i64 %3, 1000000000
  %add.i.i.i = add i64 %mul.i.i.i, %2
  call void @llvm.lifetime.end.p0(i64 16, ptr nonnull %ts.i.i.i)
  br label %_ZN2EA4StdC9Stopwatch7RestartEv.exit

_ZN2EA4StdC9Stopwatch7RestartEv.exit:             ; preds = %if.then2.i.i, %_ZN2EA4StdC9Stopwatch17GetStopwatchCycleEv.exit.i.i
  %.sink.i.i = phi i64 [ %1, %if.then2.i.i ], [ %add.i.i.i, %_ZN2EA4StdC9Stopwatch17GetStopwatchCycleEv.exit.i.i ]
  store i64 %.sink.i.i, ptr %stopwatch, align 8
  %sub.ptr.lhs.cast.i.i.i.i = ptrtoint ptr %last to i64
  %sub.ptr.rhs.cast.i.i.i.i = ptrtoint ptr %first to i64
  %sub.ptr.sub.i.i.i.i = sub i64 %sub.ptr.lhs.cast.i.i.i.i, %sub.ptr.rhs.cast.i.i.i.i
  %cmp4.i.i.i.i = icmp sgt i64 %sub.ptr.sub.i.i.i.i, 0
  br i1 %cmp4.i.i.i.i, label %for.body.preheader.i.i.i.i, label %_ZN5eastl13copy_backwardIP8LargePODS2_EET0_T_S4_S3_.exit

for.body.preheader.i.i.i.i:                       ; preds = %_ZN2EA4StdC9Stopwatch7RestartEv.exit
  %sub.ptr.div8.i.i.i.i = udiv exact i64 %sub.ptr.sub.i.i.i.i, 16408
  br label %for.body.i.i.i.i

for.body.i.i.i.i:                                 ; preds = %_ZN8LargePODaSERKS_.exit.i.i.i.i, %for.body.preheader.i.i.i.i
  %n.07.i.i.i.i = phi i64 [ %dec.i.i.i.i, %_ZN8LargePODaSERKS_.exit.i.i.i.i ], [ %sub.ptr.div8.i.i.i.i, %for.body.preheader.i.i.i.i ]
  %resultEnd.addr.06.i.i.i.i = phi ptr [ %incdec.ptr1.i.i.i.i, %_ZN8LargePODaSERKS_.exit.i.i.i.i ], [ %result, %for.body.preheader.i.i.i.i ]
  %last.addr.05.i.i.i.i = phi ptr [ %incdec.ptr.i.i.i.i, %_ZN8LargePODaSERKS_.exit.i.i.i.i ], [ %last, %for.body.preheader.i.i.i.i ]
  %incdec.ptr.i.i.i.i = getelementptr inbounds i8, ptr %last.addr.05.i.i.i.i, i64 -16408
  %incdec.ptr1.i.i.i.i = getelementptr inbounds i8, ptr %resultEnd.addr.06.i.i.i.i, i64 -16408
  %cmp.not.i.i.i.i.i = icmp eq ptr %last.addr.05.i.i.i.i, %resultEnd.addr.06.i.i.i.i
  br i1 %cmp.not.i.i.i.i.i, label %_ZN8LargePODaSERKS_.exit.i.i.i.i, label %if.then.i.i.i.i.i

if.then.i.i.i.i.i:                                ; preds = %for.body.i.i.i.i
  %mLargeObject1.i.i.i.i.i = getelementptr inbounds i8, ptr %last.addr.05.i.i.i.i, i64 -16400
  %mLargeObject12.i.i.i.i.i = getelementptr inbounds i8, ptr %resultEnd.addr.06.i.i.i.i, i64 -16400
  call void @llvm.memcpy.p0.p0.i64(ptr noundef nonnull align 8 dereferenceable(8192) %mLargeObject12.i.i.i.i.i, ptr noundef nonnull align 8 dereferenceable(8192) %mLargeObject1.i.i.i.i.i, i64 8192, i1 false)
  %mLargeObject2.i.i.i.i.i = getelementptr inbounds i8, ptr %last.addr.05.i.i.i.i, i64 -8208
  %mLargeObject23.i.i.i.i.i = getelementptr inbounds i8, ptr %resultEnd.addr.06.i.i.i.i, i64 -8208
  call void @llvm.memcpy.p0.p0.i64(ptr noundef nonnull align 8 dereferenceable(8192) %mLargeObject23.i.i.i.i.i, ptr noundef nonnull align 8 dereferenceable(8192) %mLargeObject2.i.i.i.i.i, i64 8192, i1 false)
  %mpName1.i.i.i.i.i = getelementptr inbounds i8, ptr %last.addr.05.i.i.i.i, i64 -16
  %4 = load ptr, ptr %mpName1.i.i.i.i.i, align 8
  %mpName14.i.i.i.i.i = getelementptr inbounds i8, ptr %resultEnd.addr.06.i.i.i.i, i64 -16
  store ptr %4, ptr %mpName14.i.i.i.i.i, align 8
  %mpName2.i.i.i.i.i = getelementptr inbounds i8, ptr %last.addr.05.i.i.i.i, i64 -8
  %5 = load ptr, ptr %mpName2.i.i.i.i.i, align 8
  %mpName25.i.i.i.i.i = getelementptr inbounds i8, ptr %resultEnd.addr.06.i.i.i.i, i64 -8
  store ptr %5, ptr %mpName25.i.i.i.i.i, align 8
  br label %_ZN8LargePODaSERKS_.exit.i.i.i.i

_ZN8LargePODaSERKS_.exit.i.i.i.i:                 ; preds = %if.then.i.i.i.i.i, %for.body.i.i.i.i
  %dec.i.i.i.i = add nsw i64 %n.07.i.i.i.i, -1
  %cmp.i.i.i.i = icmp sgt i64 %n.07.i.i.i.i, 1
  br i1 %cmp.i.i.i.i, label %for.body.i.i.i.i, label %_ZN5eastl13copy_backwardIP8LargePODS2_EET0_T_S4_S3_.exit, !llvm.loop !87

_ZN5eastl13copy_backwardIP8LargePODS2_EET0_T_S4_S3_.exit: ; preds = %_ZN8LargePODaSERKS_.exit.i.i.i.i, %_ZN2EA4StdC9Stopwatch7RestartEv.exit
  call void @_ZN2EA4StdC9Stopwatch4StopEv(ptr noundef nonnull align 8 dereferenceable(24) %stopwatch)
  %mLargeObject1.i = getelementptr inbounds i8, ptr %first, i64 8
  %6 = load i32, ptr %mLargeObject1.i, align 8
  %call2 = call i32 (ptr, ptr, ...) @sprintf(ptr noundef nonnull dereferenceable(1) @_ZN9Benchmark14gScratchBufferE, ptr noundef nonnull dereferenceable(1) @.str.59, i32 noundef %6) #9
  ret void
}